ccopy_reg
_reconstructor
p0
(cdigits.model.images.classification.job
ImageClassificationModelJob
p1
c__builtin__
object
p2
Ntp3
Rp4
(dp5
S'username'
p6
Vduyvk
p7
sS'_notes'
p8
NsS'tasks'
p9
(lp10
g0
(cdigits.model.tasks.caffe_train
CaffeTrainTask
p11
g2
Ntp12
Rp13
(dp14
S'shuffle'
p15
I01
sS'snapshot_interval'
p16
F1.0
sS'train_outputs'
p17
ccollections
OrderedDict
p18
((lp19
(lp20
S'epoch'
p21
ag0
(cdigits.model.tasks.train
NetworkOutput
p22
c__builtin__
tuple
p23
(S'Epoch'
p24
(lp25
I0
aF0.11221590909090909
aF0.22443181818181818
aF0.3366477272727273
aF0.44886363636363635
aF0.5610795454545454
aF0.6732954545454546
aF0.7855113636363636
aF0.8977272727272727
aF1.0099431818181819
aF1.1221590909090908
aF1.234375
aF1.3465909090909092
aF1.4588068181818181
aF1.5710227272727273
aF1.6832386363636365
aF1.7954545454545454
aF1.9076704545454546
aF2.0198863636363638
aF2.132102272727273
aF2.2443181818181817
aF2.356534090909091
aF2.46875
aF2.580965909090909
aF2.6931818181818183
aF2.805397727272727
aF2.9176136363636362
aF3.0298295454545454
aF3.1420454545454546
aF3.2542613636363638
aF3.366477272727273
aF3.4786931818181817
aF3.590909090909091
aF3.703125
aF3.815340909090909
aF3.9275568181818183
aF4.0397727272727275
aF4.151988636363637
aF4.264204545454546
aF4.376420454545454
aF4.488636363636363
aF4.6008522727272725
aF4.713068181818182
aF4.825284090909091
aF4.9375
aF5.049715909090909
aF5.161931818181818
aF5.2741477272727275
aF5.386363636363637
aF5.498579545454546
aF5.610795454545454
aF5.723011363636363
aF5.8352272727272725
aF5.947443181818182
aF6.059659090909091
aF6.171875
aF6.284090909090909
aF6.396306818181818
aF6.5085227272727275
aF6.620738636363637
aF6.732954545454546
aF6.845170454545454
aF6.957386363636363
aF7.0696022727272725
aF7.181818181818182
aF7.294034090909091
aF7.40625
aF7.518465909090909
aF7.630681818181818
aF7.7428977272727275
aF7.855113636363637
aF7.967329545454546
aF8.079545454545455
aF8.191761363636363
aF8.303977272727273
aF8.416193181818182
aF8.528409090909092
aF8.640625
aF8.752840909090908
aF8.865056818181818
aF8.977272727272727
aF9.089488636363637
aF9.201704545454545
aF9.313920454545455
aF9.426136363636363
aF9.538352272727273
aF9.650568181818182
aF9.762784090909092
aF9.875
aF9.987215909090908
aF10.099431818181818
aF10.211647727272727
aF10.323863636363637
aF10.436079545454545
aF10.548295454545455
aF10.660511363636363
aF10.772727272727273
aF10.884943181818182
aF10.997159090909092
aF11.109375
aF11.221590909090908
aF11.333806818181818
aF11.446022727272727
aF11.558238636363637
aF11.670454545454545
aF11.782670454545455
aF11.894886363636363
aF12.007102272727273
aF12.119318181818182
aF12.231534090909092
aF12.34375
aF12.455965909090908
aF12.568181818181818
aF12.680397727272727
aF12.792613636363637
aF12.904829545454545
aF13.017045454545455
aF13.129261363636363
aF13.241477272727273
aF13.353693181818182
aF13.465909090909092
aF13.578125
aF13.690340909090908
aF13.802556818181818
aF13.914772727272727
aF14.026988636363637
aF14.139204545454545
aF14.251420454545455
aF14.363636363636363
aF14.475852272727273
aF14.588068181818182
aF14.700284090909092
aF14.8125
aF14.924715909090908
aF15.036931818181818
aF15.149147727272727
aF15.261363636363637
aF15.373579545454545
aF15.485795454545455
aF15.598011363636363
aF15.710227272727273
aF15.822443181818182
aF15.934659090909092
aF16.046875
aF16.15909090909091
aF16.271306818181817
aF16.383522727272727
aF16.495738636363637
aF16.607954545454547
aF16.720170454545453
aF16.832386363636363
aF16.944602272727273
aF17.056818181818183
aF17.16903409090909
aF17.28125
aF17.39346590909091
aF17.505681818181817
aF17.617897727272727
aF17.730113636363637
aF17.842329545454547
aF17.954545454545453
aF18.066761363636363
aF18.178977272727273
aF18.291193181818183
aF18.40340909090909
aF18.515625
aF18.62784090909091
aF18.740056818181817
aF18.852272727272727
aF18.964488636363637
aF19.076704545454547
aF19.188920454545453
aF19.301136363636363
aF19.413352272727273
aF19.525568181818183
aF19.63778409090909
aF19.75
aF19.86221590909091
aF19.974431818181817
aF20.086647727272727
aF20.198863636363637
aF20.311079545454547
aF20.423295454545453
aF20.535511363636363
aF20.647727272727273
aF20.759943181818183
aF20.87215909090909
aF20.984375
aF21.09659090909091
aF21.208806818181817
aF21.321022727272727
aF21.433238636363637
aF21.545454545454547
aF21.657670454545453
aF21.769886363636363
aF21.882102272727273
aF21.994318181818183
aF22.10653409090909
aF22.21875
aF22.33096590909091
aF22.443181818181817
aF22.555397727272727
aF22.667613636363637
aF22.779829545454547
aF22.892045454545453
aF23.004261363636363
aF23.116477272727273
aF23.228693181818183
aF23.34090909090909
aF23.453125
aF23.56534090909091
aF23.677556818181817
aF23.789772727272727
aF23.901988636363637
aF24.014204545454547
aF24.126420454545453
aF24.238636363636363
aF24.350852272727273
aF24.463068181818183
aF24.57528409090909
aF24.6875
aF24.79971590909091
aF24.911931818181817
aF25.024147727272727
aF25.136363636363637
aF25.248579545454547
aF25.360795454545453
aF25.473011363636363
aF25.585227272727273
aF25.697443181818183
aF25.80965909090909
aF25.921875
aF26.03409090909091
aF26.146306818181817
aF26.258522727272727
aF26.370738636363637
aF26.482954545454547
aF26.595170454545453
aF26.707386363636363
aF26.819602272727273
aF26.931818181818183
aF27.04403409090909
aF27.15625
aF27.26846590909091
aF27.380681818181817
aF27.492897727272727
aF27.605113636363637
aF27.717329545454547
aF27.829545454545453
aF27.941761363636363
aF28.053977272727273
aF28.166193181818183
aF28.27840909090909
aF28.390625
aF28.50284090909091
aF28.615056818181817
aF28.727272727272727
aF28.839488636363637
aF28.951704545454547
aF29.063920454545453
aF29.176136363636363
aF29.288352272727273
aF29.400568181818183
aF29.51278409090909
aF29.625
aF29.73721590909091
aF29.849431818181817
aF29.961647727272727
atp26
tp27
Rp28
aa(lp29
S'loss'
p30
ag0
(g22
g23
(S'SoftmaxWithLoss'
p31
(lp32
F2.8361
aF0.195483
aF0.0743327
aF0.189798
aF0.0407116
aF0.0342978
aF0.0354981
aF0.0812122
aF0.0400882
aF0.027497
aF0.0993928
aF0.00575694
aF0.0522484
aF0.0172522
aF0.00460513
aF0.0541653
aF0.100006
aF0.00728559
aF0.0149641
aF0.102694
aF0.00338639
aF0.00263028
aF0.00518301
aF0.0186572
aF0.0255399
aF0.0134593
aF0.0305027
aF0.00853149
aF0.0141462
aF0.00285988
aF0.000937781
aF0.000702064
aF0.036334
aF0.109671
aF0.000937984
aF0.00155665
aF0.000343243
aF0.00543907
aF0.000737125
aF0.017547
aF0.000763587
aF0.0318276
aF0.00396796
aF0.00602139
aF0.0070796
aF0.00658237
aF0.0798738
aF0.00196765
aF0.000874403
aF0.00704809
aF0.000233795
aF0.000639564
aF0.000226451
aF0.0106499
aF0.000831911
aF0.000283678
aF0.00121234
aF0.000938004
aF0.00729709
aF0.00634244
aF0.00222949
aF0.000448612
aF0.000513082
aF0.00543412
aF0.000769195
aF0.000225465
aF0.000318729
aF3.40645e-05
aF0.000503579
aF0.000401241
aF0.00192301
aF0.00656348
aF0.00107033
aF0.00059117
aF0.000959955
aF0.00142977
aF0.00120526
aF0.000377881
aF0.00166185
aF0.00152543
aF0.000795476
aF0.00198687
aF0.00109343
aF0.00132091
aF0.000409193
aF0.000238736
aF0.0001288
aF0.000203031
aF0.000570402
aF0.000362251
aF9.60998e-06
aF0.0046481
aF0.00048619
aF0.000211204
aF0.000460874
aF0.000120982
aF0.000111478
aF0.000121815
aF0.000910951
aF0.000272198
aF9.48056e-05
aF0.000341807
aF0.000319519
aF2.59071e-05
aF6.27208e-05
aF0.000358367
aF0.000179299
aF0.000113
aF0.000411836
aF9.23596e-05
aF0.000238388
aF6.62679e-06
aF2.88016e-05
aF0.000164237
aF6.71623e-05
aF0.00036379
aF0.000332096
aF0.00020288
aF0.000245445
aF0.00017611
aF3.61841e-05
aF0.000200188
aF0.000520971
aF9.31071e-05
aF7.64961e-05
aF0.000164562
aF0.000901046
aF2.89674e-05
aF0.000512334
aF0.000149255
aF0.000108906
aF0.000238244
aF0.000146239
aF0.000770716
aF0.00149178
aF0.000103275
aF5.93649e-05
aF0.000586186
aF0.000529399
aF0.000117851
aF8.55075e-05
aF0.000547065
aF0.0006295
aF0.000195916
aF0.000257586
aF9.33518e-05
aF6.44555e-05
aF0.000220605
aF0.000387544
aF0.000348085
aF1.94668e-05
aF0.000144626
aF0.000768279
aF0.000462082
aF0.000145581
aF7.46951e-05
aF2.29897e-05
aF0.000199986
aF0.00108837
aF5.81253e-05
aF0.000412415
aF0.000251561
aF0.000274424
aF2.60882e-05
aF0.000763941
aF0.000730282
aF0.000364694
aF0.000301371
aF0.000182826
aF0.000164359
aF0.0017333
aF0.000407567
aF0.000169915
aF0.000217591
aF0.000221705
aF0.000675571
aF0.000224052
aF0.000959082
aF0.000235496
aF3.79239e-05
aF0.000966329
aF3.53569e-05
aF0.000465582
aF0.000186328
aF0.000302004
aF6.03131e-05
aF0.000111805
aF0.000634847
aF0.000254743
aF0.000108772
aF5.70682e-05
aF0.000273473
aF0.000151176
aF1.87567e-05
aF7.00067e-05
aF0.000281172
aF6.8663e-05
aF0.000144483
aF8.73894e-05
aF0.00011265
aF5.84453e-05
aF4.92444e-05
aF0.00017872
aF0.00011844
aF7.3094e-06
aF0.000243865
aF6.23292e-05
aF0.000217917
aF0.000166798
aF0.000381507
aF2.0723e-05
aF0.000620034
aF0.000141636
aF0.000275163
aF0.000181461
aF0.000747531
aF0.000248574
aF0.000106473
aF6.33975e-05
aF9.79219e-05
aF1.70035e-05
aF0.000182401
aF0.000570211
aF8.17321e-05
aF0.000185616
aF4.6229e-05
aF0.000581224
aF0.000383781
aF8.16818e-05
aF8.71686e-05
aF7.05774e-05
aF0.00144315
aF0.000221995
aF3.42319e-05
aF3.92406e-05
aF6.18668e-05
aF0.000460898
aF0.000616154
aF0.000431567
aF0.000352015
aF0.00140624
aF0.000421561
aF0.000310151
aF0.000601924
aF0.000360229
aF0.000235077
aF0.000579514
aF0.000926089
aF0.000632112
aF0.000247897
aF0.000388574
aF7.97874e-05
aF3.68153e-05
aF0.000165712
aF4.86967e-05
aF0.000311626
aF6.14873e-05
aF0.000475796
aF0.000287894
aF0.000175817
aF0.000165319
aF5.87846e-05
aF2.73328e-05
aF3.88374e-05
aF0.000169422
aF9.80833e-05
aF0.000692209
aF4.18732e-05
atp33
tp34
Rp35
aa(lp36
S'learning_rate'
p37
ag0
(g22
g23
(S'LearningRate'
p38
(lp39
F0.01
aF0.01
aF0.01
aF0.01
aF0.01
aF0.01
aF0.01
aF0.01
aF0.01
aF0.01
aF0.01
aF0.01
aF0.01
aF0.01
aF0.01
aF0.01
aF0.01
aF0.01
aF0.01
aF0.01
aF0.01
aF0.01
aF0.01
aF0.01
aF0.01
aF0.01
aF0.01
aF0.01
aF0.01
aF0.01
aF0.01
aF0.01
aF0.01
aF0.01
aF0.01
aF0.01
aF0.01
aF0.01
aF0.01
aF0.01
aF0.01
aF0.01
aF0.01
aF0.01
aF0.01
aF0.01
aF0.01
aF0.01
aF0.01
aF0.01
aF0.01
aF0.01
aF0.01
aF0.01
aF0.01
aF0.01
aF0.01
aF0.01
aF0.01
aF0.01
aF0.01
aF0.01
aF0.01
aF0.01
aF0.01
aF0.01
aF0.01
aF0.01
aF0.01
aF0.01
aF0.01
aF0.01
aF0.01
aF0.01
aF0.01
aF0.01
aF0.01
aF0.01
aF0.01
aF0.01
aF0.01
aF0.01
aF0.01
aF0.01
aF0.01
aF0.01
aF0.01
aF0.01
aF0.01
aF0.001
aF0.001
aF0.001
aF0.001
aF0.001
aF0.001
aF0.001
aF0.001
aF0.001
aF0.001
aF0.001
aF0.001
aF0.001
aF0.001
aF0.001
aF0.001
aF0.001
aF0.001
aF0.001
aF0.001
aF0.001
aF0.001
aF0.001
aF0.001
aF0.001
aF0.001
aF0.001
aF0.001
aF0.001
aF0.001
aF0.001
aF0.001
aF0.001
aF0.001
aF0.001
aF0.001
aF0.001
aF0.001
aF0.001
aF0.001
aF0.001
aF0.001
aF0.001
aF0.001
aF0.001
aF0.001
aF0.001
aF0.001
aF0.001
aF0.001
aF0.001
aF0.001
aF0.001
aF0.001
aF0.001
aF0.001
aF0.001
aF0.001
aF0.001
aF0.001
aF0.001
aF0.001
aF0.001
aF0.001
aF0.001
aF0.001
aF0.001
aF0.001
aF0.001
aF0.001
aF0.001
aF0.001
aF0.001
aF0.001
aF0.001
aF0.001
aF0.001
aF0.001
aF0.001
aF0.001
aF0.001
aF0.001
aF0.001
aF0.001
aF0.001
aF0.001
aF0.001
aF0.001
aF0.0001
aF0.0001
aF0.0001
aF0.0001
aF0.0001
aF0.0001
aF0.0001
aF0.0001
aF0.0001
aF0.0001
aF0.0001
aF0.0001
aF0.0001
aF0.0001
aF0.0001
aF0.0001
aF0.0001
aF0.0001
aF0.0001
aF0.0001
aF0.0001
aF0.0001
aF0.0001
aF0.0001
aF0.0001
aF0.0001
aF0.0001
aF0.0001
aF0.0001
aF0.0001
aF0.0001
aF0.0001
aF0.0001
aF0.0001
aF0.0001
aF0.0001
aF0.0001
aF0.0001
aF0.0001
aF0.0001
aF0.0001
aF0.0001
aF0.0001
aF0.0001
aF0.0001
aF0.0001
aF0.0001
aF0.0001
aF0.0001
aF0.0001
aF0.0001
aF0.0001
aF0.0001
aF0.0001
aF0.0001
aF0.0001
aF0.0001
aF0.0001
aF0.0001
aF0.0001
aF0.0001
aF0.0001
aF0.0001
aF0.0001
aF0.0001
aF0.0001
aF0.0001
aF0.0001
aF0.0001
aF0.0001
aF0.0001
aF0.0001
aF0.0001
aF0.0001
aF0.0001
aF0.0001
aF0.0001
aF0.0001
aF0.0001
aF0.0001
aF0.0001
aF0.0001
aF0.0001
aF0.0001
aF0.0001
aF0.0001
aF0.0001
aF0.0001
aF1e-05
aF1e-05
aF1e-05
atp40
tp41
Rp42
aatp43
Rp44
sS'val_outputs'
p45
g18
((lp46
(lp47
g21
ag0
(g22
g23
(g24
(lp48
I0
aF1.0
aF2.0
aF3.0
aF4.0
aF5.0
aF6.0
aF7.0
aF8.0
aF9.0
aF10.0
aF11.0
aF12.0
aF13.0
aF14.0
aF15.0
aF16.0
aF17.0
aF18.0
aF19.0
aF20.0
aF21.0
aF22.0
aF23.0
aF24.0
aF25.0
aF26.0
aF27.0
aF28.0
aF29.0
aF30.0
atp49
tp50
Rp51
aa(lp52
S'accuracy'
p53
ag0
(g22
g23
(S'Accuracy'
p54
(lp55
F0.0920842
aF0.98041
aF0.985341
aF0.987407
aF0.98774
aF0.98714
aF0.987473
aF0.990339
aF0.989339
aF0.989672
aF0.990005
aF0.990272
aF0.990139
aF0.990072
aF0.990072
aF0.990072
aF0.990139
aF0.990205
aF0.990205
aF0.990205
aF0.990272
aF0.990272
aF0.990272
aF0.990272
aF0.990272
aF0.990272
aF0.990205
aF0.990272
aF0.990272
aF0.990272
aF0.990272
atp56
tp57
Rp58
aa(lp59
S'loss'
p60
ag0
(g22
g23
(S'SoftmaxWithLoss'
p61
(lp62
F2.81763
aF0.0661902
aF0.0483665
aF0.0424786
aF0.045226
aF0.0490818
aF0.0496343
aF0.0444287
aF0.0460283
aF0.0417859
aF0.04377
aF0.0420487
aF0.0426954
aF0.0419264
aF0.0419183
aF0.0419158
aF0.0419399
aF0.0419097
aF0.0419262
aF0.0419022
aF0.0418874
aF0.0418898
aF0.0418941
aF0.0418948
aF0.0418952
aF0.0418994
aF0.0420436
aF0.0419016
aF0.0419017
aF0.0418998
aF0.0418879
atp63
tp64
Rp65
aatp66
Rp67
sS'loaded_snapshot_epoch'
p68
NsS'pretrained_model'
p69
NsS'deploy_file'
p70
S'deploy.prototxt'
p71
sS'current_iteration'
p72
I21120
sS'crop_size'
p73
NsS'train_epochs'
p74
I30
sS'network'
p75
ccaffe_pb2
NetParameter
p76
(tRp77
(dp78
S'serialized'
p79
S'\n\x05LeNet\xa2\x067\n\ntrain-data\x12\x04Data"\x06scaled"\x05labelB\x07"\x05train\xa2\x06\x05\r\xcd\xccL<\xda\x06\x02 @\xa2\x063\n\x08val-data\x12\x04Data"\x06scaled"\x05labelB\x05"\x03val\xa2\x06\x05\r\xcd\xccL<\xda\x06\x02  \xa2\x06.\n\x05scale\x12\x05Power\x1a\x04data"\x06scaledB\x08"\x06deploy\xd2\x07\x05\x15\xcd\xccL<\xa2\x06P\n\x05conv1\x12\x0bConvolution\x1a\x06scaled"\x05conv12\x05\x1d\x00\x00\x80?2\x05\x1d\x00\x00\x00@\xd2\x06\x1c\x08\x14 \x050\x01:\x08\n\x06xavierB\n\n\x08constant\xa2\x06\'\n\x05pool1\x12\x07Pooling\x1a\x05conv1"\x05pool1\xca\x07\x06\x08\x00\x10\x02\x18\x02\xa2\x06O\n\x05conv2\x12\x0bConvolution\x1a\x05pool1"\x05conv22\x05\x1d\x00\x00\x80?2\x05\x1d\x00\x00\x00@\xd2\x06\x1c\x082 \x050\x01:\x08\n\x06xavierB\n\n\x08constant\xa2\x06\'\n\x05pool2\x12\x07Pooling\x1a\x05conv2"\x05pool2\xca\x07\x06\x08\x00\x10\x02\x18\x02\xa2\x06I\n\x03ip1\x12\x0cInnerProduct\x1a\x05pool2"\x03ip12\x05\x1d\x00\x00\x80?2\x05\x1d\x00\x00\x00@\xaa\x07\x19\x08\xf4\x03\x1a\x08\n\x06xavier"\n\n\x08constant\xa2\x06\x17\n\x05relu1\x12\x04ReLU\x1a\x03ip1"\x03ip1\xa2\x06D\n\x03ip2\x12\x0cInnerProduct\x1a\x03ip1"\x03ip22\x05\x1d\x00\x00\x80?2\x05\x1d\x00\x00\x00@\xaa\x07\x16\x1a\x08\n\x06xavier"\n\n\x08constant\xa2\x061\n\x08accuracy\x12\x08Accuracy\x1a\x03ip2\x1a\x05label"\x08accuracyB\x05"\x03val\xa2\x063\n\x04loss\x12\x0fSoftmaxWithLoss\x1a\x03ip2\x1a\x05label"\x04lossJ\x08"\x06deploy\xa2\x06*\n\x07softmax\x12\x07Softmax\x1a\x03ip2"\x07softmaxB\x08"\x06deploy'
p80
sbsS'use_mean'
p81
Vimage
p82
sS'job_dir'
p83
S'/usr/share/digits/digits/jobs/20170418-144930-85dd'
p84
sS'receiving_val_output'
p85
I00
sS'parents'
p86
NsS'progress'
p87
F1.0
sS'lr_policy'
p88
(dp89
S'policy'
p90
Vstep
p91
sS'stepsize'
p92
F33.0
sS'gamma'
p93
F0.1
ssS'gpu_count'
p94
I1
sS'receiving_train_output'
p95
I00
sS'val_interval'
p96
F1.0
sS'current_epoch'
p97
F30.0
sS'random_seed'
p98
NsS'saving_snapshot'
p99
I00
sS'pickver_task_caffe_train'
p100
I3
sg37
F0.01
sS'loaded_snapshot_file'
p101
NsS'batch_size'
p102
NsS'job'
p103
g4
sS'pickver_task_train'
p104
I2
sS'pickver_task'
p105
I1
sS'job_id'
p106
S'20170418-144930-85dd'
p107
sS'exception'
p108
NsS'current_resources'
p109
NsS'selected_gpus'
p110
NsS'solver'
p111
ccaffe_pb2
SolverParameter
p112
(tRp113
(dp114
g79
S'\x18\xd5\x03 \xc0\x05-\n\xd7#<0O8\x80\xa5\x01B\x04stepM\xcd\xcc\xcc=]fff?e\x17\xb7\xd18h\xba6p\xc0\x05z\x08snapshot\x88\x01\x01\xc2\x01\x12train_val.prototxt\xf0\x01\x00'
p115
sbsS'snapshot_prefix'
p116
S'snapshot'
p117
sS'traceback'
p118
NsS'framework_id'
p119
S'caffe'
p120
sS'status_history'
p121
(lp122
((idigits.status
Status
p123
S'I'
p125
bF1492526970.467085
tp126
a((idigits.status
Status
p127
S'R'
p128
bF1492526971.785225
tp129
a((idigits.status
Status
p130
S'D'
p131
bF1492527112.448401
tp132
asS'last_train_update'
p133
F1492527108.054675
sS'train_val_file'
p134
S'train_val.prototxt'
p135
sS'image_mean'
p136
NsS'batch_accumulation'
p137
NsS'log_file'
p138
S'caffe_output.log'
p139
sS'solver_file'
p140
S'solver.prototxt'
p141
sS'solver_type'
p142
VSGD
p143
sbasS'pickver_job'
p144
I1
sS'dataset_id'
p145
S'20170418-144659-fc01'
p146
sS'pickver_job_model_image'
p147
I1
sg108
NsS'persistent'
p148
I01
sS'_name'
p149
VLeNet_mnist
p150
sS'form_data'
p151
(dp152
S'form.standard_networks.data'
p153
Vlenet
p154
sS'form.learning_rate.data'
p155
(lp156
F0.01
asS'form.select_gpus.data'
p157
(lp158
sS'form.framework.data'
p159
Vcaffe
p160
sS'form.dataset.data'
p161
V20170418-144659-fc01
p162
sS'form.python_layer_from_client.data'
p163
I00
sS'form.lr_multistep_values.data'
p164
V50,85
p165
sS'form.lr_sigmoid_gamma.data'
p166
F0.1
sS'form.lr_policy.data'
p167
g91
sS'form.previous_networks.data'
p168
VNone
p169
sS'form.select_gpu.data'
p170
Vnext
p171
sS'form.method.data'
p172
Vstandard
p173
sS'form.lr_sigmoid_step.data'
p174
F50.0
sS'form.crop_size.data'
p175
NsS'form.select_gpu_count.data'
p176
I1
sS'form.python_layer_server_file.data'
p177
V
p178
sS'form.solver_type.data'
p179
g143
sS'form.select_gpus_list.data'
p180
g178
sS'form.shuffle.data'
p181
I01
sS'form.batch_accumulation.data'
p182
NsS'form.custom_network.data'
p183
g178
sS'form.lr_step_gamma.data'
p184
F0.1
sS'form.use_mean.data'
p185
g82
sS'form.lr_inv_gamma.data'
p186
F0.1
sS'form.lr_poly_power.data'
p187
F3.0
sS'form.snapshot_interval.data'
p188
F1.0
sS'form.lr_step_size.data'
p189
F33.0
sS'form.lr_inv_power.data'
p190
F0.5
sS'form.custom_network_snapshot.data'
p191
g178
sS'form.batch_size.data'
p192
(lp193
NasS'form.lr_multistep_gamma.data'
p194
F0.5
sS'form.model_name.data'
p195
g150
sS'form.lr_exp_gamma.data'
p196
F0.95
sS'form.val_interval.data'
p197
F1.0
sS'form.train_epochs.data'
p198
I30
sS'form.random_seed.data'
p199
Nssg87
F1.0
sS'_id'
p200
S'20170418-144930-85dd'
p201
sS'pickver_job_dataset'
p202
I1
sg121
(lp203
((idigits.status
Status
p204
g125
bF1492526970.460954
tp205
a((idigits.status
Status
p206
g128
bF1492526971.68896
tp207
a((idigits.status
Status
p208
g131
bF1492527112.708132
tp209
asS'pickver_job_model_image_classification'
p210
I1
sb.