ccopy_reg
_reconstructor
p0
(cdigits.dataset.images.classification.job
ImageClassificationDatasetJob
p1
c__builtin__
object
p2
Ntp3
Rp4
(dp5
S'username'
p6
Vduyvk
p7
sS'_notes'
p8
NsS'tasks'
p9
(lp10
g0
(cdigits.dataset.tasks.parse_folder
ParseFolderTask
p11
g2
Ntp12
Rp13
(dp14
S'train_count'
p15
I45002
sS'percent_test'
p16
F0.0
sS'labels_file'
p17
S'labels.txt'
p18
sS'percent_val'
p19
F25.0
sS'val_file'
p20
S'val.txt'
p21
sS'pickver_task_parsefolder'
p22
I1
sS'test_count'
p23
I0
sS'max_per_category'
p24
NsS'pickver_task'
p25
I1
sS'exception'
p26
NsS'current_resources'
p27
NsS'job_id'
p28
S'20170418-144659-fc01'
p29
sS'train_file'
p30
S'train.txt'
p31
sS'traceback'
p32
NsS'label_count'
p33
I10
sS'job_dir'
p34
S'/usr/share/digits/digits/jobs/20170418-144659-fc01'
p35
sS'parents'
p36
NsS'progress'
p37
F1.0
sS'folder'
p38
V/home/ubuntu/mnist/train
p39
sS'min_per_category'
p40
I2
sS'val_count'
p41
I14998
sS'status_history'
p42
(lp43
((idigits.status
Status
p44
S'I'
p46
bF1492526819.478708
tp47
a((idigits.status
Status
p48
S'R'
p49
bF1492526820.652773
tp50
a((idigits.status
Status
p51
S'D'
p52
bF1492526822.134502
tp53
asbag0
(cdigits.dataset.tasks.create_db
CreateDbTask
p54
g2
Ntp55
Rp56
(dp57
g17
g18
sg32
NsS'shuffle'
p58
I01
sS'pickver_task_createdb'
p59
I3
sS'encoding'
p60
Vpng
p61
sS'image_dims'
p62
(I28
I28
I1
tp63
sS'resize_mode'
p64
Vsquash
p65
sS'mean_file'
p66
S'mean.binaryproto'
p67
sS'db_name'
p68
S'train_db'
p69
sS'create_db_log_file'
p70
S'create_train_db.log'
p71
sS'entries_count'
p72
I45002
sg25
I1
sS'distribution'
p73
(dp74
V1
p75
I5057
sV0
p76
I4442
sV3
p77
I4598
sV2
p78
I4469
sV5
p79
I4066
sV4
p80
I4382
sV7
p81
I4699
sV6
p82
I4439
sV9
p83
I4462
sV8
p84
I4388
ssS'image_folder'
p85
NsS'backend'
p86
Vlmdb
p87
sS'_labels'
p88
(lp89
S'0'
p90
aS'1'
p91
aS'2'
p92
aS'3'
p93
aS'4'
p94
aS'5'
p95
aS'6'
p96
aS'7'
p97
aS'8'
p98
aS'9'
p99
asg26
Nsg27
NsS'compression'
p100
S'none'
p101
sS'input_file'
p102
g31
sg28
S'20170418-144659-fc01'
p103
sg34
g35
sg36
(lp104
g13
asS'image_channel_order'
p105
Nsg37
F1.0
sg42
(lp106
((idigits.status
Status
p107
g46
bF1492526819.4788
tp108
a((idigits.status
Status
p109
g49
bF1492526822.273482
tp110
a((idigits.status
Status
p111
g52
bF1492526881.485833
tp112
asbag0
(g54
g2
Ntp113
Rp114
(dp115
g17
g18
sg32
Nsg58
I01
sg59
I3
sg60
g61
sg62
g63
sg64
g65
sg66
Nsg68
S'val_db'
p116
sg70
S'create_val_db.log'
p117
sg72
I14998
sg25
I1
sg73
(dp118
g75
I1685
sg76
I1481
sg77
I1533
sg78
I1489
sg79
I1355
sg80
I1460
sg81
I1566
sg82
I1479
sg83
I1487
sg84
I1463
ssg85
Nsg86
g87
sg88
(lp119
g90
ag91
ag92
ag93
ag94
ag95
ag96
ag97
ag98
ag99
asg26
Nsg27
Nsg100
g101
sg102
g21
sg28
S'20170418-144659-fc01'
p120
sg34
g35
sg36
(lp121
g13
asg105
Nsg37
F1.0
sg42
(lp122
((idigits.status
Status
p123
g46
bF1492526819.478839
tp124
a((idigits.status
Status
p125
g49
bF1492526822.280558
tp126
a((idigits.status
Status
p127
g52
bF1492526851.476699
tp128
asbasg17
g18
sg62
g63
sg64
g65
sS'pickver_job'
p129
I1
sS'pickver_job_dataset_image'
p130
I1
sg26
NsS'pickver_job_dataset_image_classification'
p131
I2
sS'persistent'
p132
I01
sS'_name'
p133
Vmnist
p134
sS'form_data'
p135
(dp136
S'form.textfile_local_train_images.data'
p137
V
p138
sS'form.resize_height.data'
p139
I28
sS'form.folder_train.data'
p140
g39
sS'form.folder_val_max_per_class.data'
p141
NsS'form.folder_train_min_per_class.data'
p142
I2
sS'form.textfile_val_folder.data'
p143
g138
sS'form.backend.data'
p144
g87
sS'form.method.data'
p145
Vfolder
p146
sS'form.encoding.data'
p147
g61
sS'form.folder_test_max_per_class.data'
p148
NsS'form.textfile_local_labels_file.data'
p149
g138
sS'form.compression.data'
p150
g101
sS'form.folder_val.data'
p151
g138
sS'form.textfile_use_test.data'
p152
I00
sS'form.folder_val_min_per_class.data'
p153
I2
sS'form.has_val_folder.data'
p154
I00
sS'form.dataset_name.data'
p155
g134
sS'form.textfile_shuffle.data'
p156
I1
sS'form.textfile_local_val_images.data'
p157
g138
sS'form.textfile_use_local_files.data'
p158
I00
sS'form.resize_width.data'
p159
I28
sS'form.textfile_train_folder.data'
p160
g138
sS'form.folder_train_max_per_class.data'
p161
NsS'form.folder_test.data'
p162
g138
sS'form.folder_test_min_per_class.data'
p163
I2
sS'form.folder_pct_val.data'
p164
I25
sS'form.resize_mode.data'
p165
g65
sS'form.resize_channels.data'
p166
V1
p167
sS'form.textfile_test_folder.data'
p168
g138
sS'form.folder_pct_test.data'
p169
I0
sS'form.has_test_folder.data'
p170
I00
sS'form.textfile_use_val.data'
p171
I01
sS'form.textfile_local_test_images.data'
p172
g138
ssg37
F1.0
sS'_id'
p173
S'20170418-144659-fc01'
p174
sS'pickver_job_dataset'
p175
I1
sg42
(lp176
((idigits.status
Status
p177
g46
bF1492526819.478503
tp178
a((idigits.status
Status
p179
g49
bF1492526820.547455
tp180
a((idigits.status
Status
p181
g52
bF1492526881.651596
tp182
asb.